(dp1
S'output'
p2
S"<type 'exceptions.AttributeError'> 'DIV' object has no attribute 'add_button'"
p3
sS'layer'
p4
S'/home/topf/Web2Py/web2py/applications/Asylum/controllers/asylum.py'
p5
sS'code'
p6
S'<code object <module> at 0xae224e78, file "/home/topf/Web2Py/web2py/applications/Asylum/controllers/asylum.py", line 4>'
p7
sS'snapshot'
p8
(dp9
sS'traceback'
p10
S'Traceback (most recent call last):\n  File "/home/topf/Web2Py/web2py/gluon/restricted.py", line 219, in restricted\n    exec(ccode, environment)\n  File "/home/topf/Web2Py/web2py/applications/Asylum/controllers/asylum.py", line 332, in <module>\n  File "/home/topf/Web2Py/web2py/gluon/globals.py", line 409, in <lambda>\n    self._caller = lambda f: f()\n  File "/home/topf/Web2Py/web2py/gluon/tools.py", line 3964, in f\n    return action(*a, **b)\n  File "/home/topf/Web2Py/web2py/applications/Asylum/controllers/asylum.py", line 72, in manage\n    grid.add_button(\'Back\', URL(\'index\'))\nAttributeError: \'DIV\' object has no attribute \'add_button\'\n'
p11
s.