(dp1
S'output'
p2
S"<type 'exceptions.KeyError'> "
p3
sS'layer'
p4
S'/home/topf/Web2Py/web2py/applications/Asylum/controllers/asylum.py'
p5
sS'code'
p6
S'<code object <module> at 0xae8bfbf0, file "/home/topf/Web2Py/web2py/applications/Asylum/controllers/asylum.py", line 5>'
p7
sS'snapshot'
p8
(dp9
sS'traceback'
p10
S'Traceback (most recent call last):\n  File "/home/topf/Web2Py/web2py/gluon/restricted.py", line 219, in restricted\n    exec(ccode, environment)\n  File "/home/topf/Web2Py/web2py/applications/Asylum/controllers/asylum.py", line 261, in <module>\n  File "/home/topf/Web2Py/web2py/gluon/globals.py", line 409, in <lambda>\n    self._caller = lambda f: f()\n  File "/home/topf/Web2Py/web2py/gluon/tools.py", line 3964, in f\n    return action(*a, **b)\n  File "/home/topf/Web2Py/web2py/applications/Asylum/controllers/asylum.py", line 158, in grid_housing\n    grid = SQLFORM.smartgrid(db.asylum_housing,)\n  File "/home/topf/Web2Py/web2py/gluon/sqlhtml.py", line 3238, in smartgrid\n    grid.update_form.record))\n  File "/home/topf/Web2Py/web2py/gluon/sqlhtml.py", line 3102, in format\n    return table._format % row\n  File "/home/topf/Web2Py/web2py/gluon/packages/dal/pydal/objects.py", line 84, in __getitem__\n    raise KeyError\nKeyError\n'
p11
s.