(dp1
S'output'
p2
S'<type \'exceptions.SyntaxError\'> Field: invalid field name: 0, use rname for "funny" names'
p3
sS'layer'
p4
S'/home/topf/Web2Py/web2py/applications/Asylum/controllers/default.py'
p5
sS'code'
p6
S'<code object <module> at 0xaedfa1d0, file "/home/topf/Web2Py/web2py/applications/Asylum/controllers/default.py", line 12>'
p7
sS'snapshot'
p8
(dp9
sS'traceback'
p10
S'Traceback (most recent call last):\n  File "/home/topf/Web2Py/web2py/gluon/restricted.py", line 219, in restricted\n    exec(ccode, environment)\n  File "/home/topf/Web2Py/web2py/applications/Asylum/controllers/default.py", line 148, in <module>\n  File "/home/topf/Web2Py/web2py/gluon/globals.py", line 409, in <lambda>\n    self._caller = lambda f: f()\n  File "/home/topf/Web2Py/web2py/applications/Asylum/controllers/default.py", line 33, in my_language\n    form = SQLFORM.dictform(langdict)\n  File "/home/topf/Web2Py/web2py/gluon/sqlhtml.py", line 1880, in dictform\n    default=value))\n  File "/home/topf/Web2Py/web2py/gluon/packages/dal/pydal/objects.py", line 1584, in __init__\n    \'use rname for "funny" names\' % fieldname)\nSyntaxError: Field: invalid field name: 0, use rname for "funny" names\n'
p11
s.