(dp1
S'output'
p2
S"<type 'exceptions.AttributeError'> 'DAL' object has no attribute '%(name)s'"
p3
sS'layer'
p4
S'/home/topf/Web2Py/web2py/applications/Asylum/controllers/msw.py'
p5
sS'code'
p6
S'<code object <module> at 0xaf3acc38, file "/home/topf/Web2Py/web2py/applications/Asylum/controllers/msw.py", line 3>'
p7
sS'snapshot'
p8
(dp9
sS'traceback'
p10
S'Traceback (most recent call last):\n  File "/home/topf/Web2Py/web2py/gluon/restricted.py", line 219, in restricted\n    exec(ccode, environment)\n  File "/home/topf/Web2Py/web2py/applications/Asylum/controllers/msw.py", line 98, in <module>\n  File "/home/topf/Web2Py/web2py/gluon/globals.py", line 409, in <lambda>\n    self._caller = lambda f: f()\n  File "/home/topf/Web2Py/web2py/gluon/tools.py", line 3964, in f\n    return action(*a, **b)\n  File "/home/topf/Web2Py/web2py/applications/Asylum/controllers/msw.py", line 81, in manage\n    links_in_grid=True)\n  File "/home/topf/Web2Py/web2py/gluon/sqlhtml.py", line 2620, in grid\n    search_menu = SQLFORM.search_menu(sfields, prefix=prefix)\n  File "/home/topf/Web2Py/web2py/gluon/sqlhtml.py", line 2034, in search_menu\n    _class=\'form-control\',\n  File "/home/topf/Web2Py/web2py/gluon/validators.py", line 601, in options\n    self.build_set()\n  File "/home/topf/Web2Py/web2py/gluon/validators.py", line 572, in build_set\n    table = self.dbset.db[self.ktable]\n  File "/home/topf/Web2Py/web2py/gluon/packages/dal/pydal/base.py", line 663, in __getitem__\n    return self.__getattr__(str(key))\n  File "/home/topf/Web2Py/web2py/gluon/packages/dal/pydal/base.py", line 670, in __getattr__\n    return BasicStorage.__getattribute__(self, key)\nAttributeError: \'DAL\' object has no attribute \'%(name)s\'\n'
p11
s.