(dp1
S'output'
p2
S"<type 'exceptions.TypeError'> expected string or buffer"
p3
sS'layer'
p4
S'/home/topf/Web2Py/web2py/applications/Asylum/controllers/msw.py'
p5
sS'code'
p6
S'<code object <module> at 0xaef5db18, file "/home/topf/Web2Py/web2py/applications/Asylum/controllers/msw.py", line 3>'
p7
sS'snapshot'
p8
(dp9
sS'traceback'
p10
S'Traceback (most recent call last):\n  File "/home/topf/Web2Py/web2py/gluon/restricted.py", line 219, in restricted\n    exec(ccode, environment)\n  File "/home/topf/Web2Py/web2py/applications/Asylum/controllers/msw.py", line 93, in <module>\n  File "/home/topf/Web2Py/web2py/gluon/globals.py", line 409, in <lambda>\n    self._caller = lambda f: f()\n  File "/home/topf/Web2Py/web2py/applications/Asylum/controllers/msw.py", line 56, in list_records\n    match = REGEX.match(request.vars.query)\nTypeError: expected string or buffer\n'
p11
s.