(dp1
S'output'
p2
S"<type 'exceptions.AttributeError'> 'bool' object has no attribute 'first'"
p3
sS'layer'
p4
S'/home/topf/Web2Py/web2py/applications/Asylum/controllers/asylum.py'
p5
sS'code'
p6
S'<code object <module> at 0xae5cf8d8, file "/home/topf/Web2Py/web2py/applications/Asylum/controllers/asylum.py", line 5>'
p7
sS'snapshot'
p8
(dp9
sS'traceback'
p10
S'Traceback (most recent call last):\n  File "/home/topf/Web2Py/web2py/gluon/restricted.py", line 219, in restricted\n    exec(ccode, environment)\n  File "/home/topf/Web2Py/web2py/applications/Asylum/controllers/asylum.py", line 234, in <module>\n  File "/home/topf/Web2Py/web2py/gluon/globals.py", line 409, in <lambda>\n    self._caller = lambda f: f()\n  File "/home/topf/Web2Py/web2py/gluon/tools.py", line 3964, in f\n    return action(*a, **b)\n  File "/home/topf/Web2Py/web2py/applications/Asylum/controllers/asylum.py", line 147, in grid_healthinsurance\n    form = SQLFORM.smartgrid(db.asylum_healthinsurance,\n  File "/home/topf/Web2Py/web2py/gluon/sqlhtml.py", line 3224, in smartgrid\n    user_signature=user_signature, **kwargs)\n  File "/home/topf/Web2Py/web2py/gluon/sqlhtml.py", line 2416, in grid\n    create_form = SQLFORM(table, **sqlformargs)\n  File "/home/topf/Web2Py/web2py/gluon/sqlhtml.py", line 1429, in __init__\n    inp = self.widgets[field_type].widget(field, default)\n  File "/home/topf/Web2Py/web2py/gluon/sqlhtml.py", line 213, in widget\n    attr = cls._attributes(field, default, **attributes)\n  File "/home/topf/Web2Py/web2py/gluon/sqlhtml.py", line 171, in _attributes\n    trigger, cond = show_if(field.show_if)\n  File "/home/topf/Web2Py/web2py/gluon/sqlhtml.py", line 123, in show_if\n    base = "%s_%s" % (cond.first.tablename, cond.first.name)\nAttributeError: \'bool\' object has no attribute \'first\'\n'
p11
s.