(dp1
S'output'
p2
S'<type \'exceptions.ImportError\'> (ImportError("Cannot import module \'applications.Asylum.modules.iban\'",), <traceback object at 0xae36a2ac>)'
p3
sS'layer'
p4
S'/home/topf/Web2Py/web2py/applications/Asylum/controllers/asylum.py'
p5
sS'code'
p6
S'<code object <module> at 0xae1566e0, file "/home/topf/Web2Py/web2py/applications/Asylum/controllers/asylum.py", line 3>'
p7
sS'snapshot'
p8
(dp9
sS'traceback'
p10
S'Traceback (most recent call last):\n  File "/home/topf/Web2Py/web2py/gluon/restricted.py", line 219, in restricted\n    exec(ccode, environment)\n  File "/home/topf/Web2Py/web2py/applications/Asylum/controllers/asylum.py", line 193, in <module>\n  File "/home/topf/Web2Py/web2py/gluon/globals.py", line 409, in <lambda>\n    self._caller = lambda f: f()\n  File "/home/topf/Web2Py/web2py/gluon/tools.py", line 3964, in f\n    return action(*a, **b)\n  File "/home/topf/Web2Py/web2py/applications/Asylum/controllers/asylum.py", line 128, in grid1_pbase\n    ondelete=my_ondelete,\n  File "/home/topf/Web2Py/web2py/gluon/sqlhtml.py", line 2469, in grid\n    next=referrer)\n  File "/home/topf/Web2Py/web2py/gluon/html.py", line 2300, in process\n    self.validate(**kwargs)\n  File "/home/topf/Web2Py/web2py/gluon/html.py", line 2238, in validate\n    if self.accepts(**kwargs):\n  File "/home/topf/Web2Py/web2py/gluon/sqlhtml.py", line 1640, in accepts\n    **kwargs\n  File "/home/topf/Web2Py/web2py/gluon/html.py", line 2142, in accepts\n    call_as_list(onvalidation, self)\n  File "/home/topf/Web2Py/web2py/gluon/html.py", line 141, in call_as_list\n    item(*a, **b)\n  File "/home/topf/Web2Py/web2py/applications/Asylum/controllers/asylum.py", line 143, in my_onvalidate\n    print str(check_IBAN())\n  File "/home/topf/Web2Py/web2py/applications/Asylum/controllers/asylum.py", line 165, in check_IBAN\n    import iban\n  File "/home/topf/Web2Py/web2py/gluon/custom_import.py", line 104, in custom_importer\n    raise ImportError(e1, import_tb)  # there an import error in the module\nImportError: (ImportError("Cannot import module \'applications.Asylum.modules.iban\'",), <traceback object at 0xae36a2ac>)\n'
p11
s.