(dp1
S'output'
p2
S"<type 'exceptions.ValueError'> invalid literal for long() with base 10: 'edit'"
p3
sS'layer'
p4
S'/home/topf/Web2Py/web2py/applications/Asylum/controllers/asylum.py'
p5
sS'code'
p6
S'<code object <module> at 0xaeaffa40, file "/home/topf/Web2Py/web2py/applications/Asylum/controllers/asylum.py", line 5>'
p7
sS'snapshot'
p8
(dp9
sS'traceback'
p10
S'Traceback (most recent call last):\n  File "/home/topf/Web2Py/web2py/gluon/restricted.py", line 219, in restricted\n    exec(ccode, environment)\n  File "/home/topf/Web2Py/web2py/applications/Asylum/controllers/asylum.py", line 221, in <module>\n  File "/home/topf/Web2Py/web2py/gluon/globals.py", line 409, in <lambda>\n    self._caller = lambda f: f()\n  File "/home/topf/Web2Py/web2py/gluon/tools.py", line 3964, in f\n    return action(*a, **b)\n  File "/home/topf/Web2Py/web2py/applications/Asylum/controllers/asylum.py", line 130, in grid1_pbase\n    ondelete=my_ondelete,\n  File "/home/topf/Web2Py/web2py/gluon/sqlhtml.py", line 2469, in grid\n    next=referrer)\n  File "/home/topf/Web2Py/web2py/gluon/html.py", line 2300, in process\n    self.validate(**kwargs)\n  File "/home/topf/Web2Py/web2py/gluon/html.py", line 2238, in validate\n    if self.accepts(**kwargs):\n  File "/home/topf/Web2Py/web2py/gluon/sqlhtml.py", line 1640, in accepts\n    **kwargs\n  File "/home/topf/Web2Py/web2py/gluon/html.py", line 2142, in accepts\n    call_as_list(onvalidation, self)\n  File "/home/topf/Web2Py/web2py/gluon/html.py", line 141, in call_as_list\n    item(*a, **b)\n  File "/home/topf/Web2Py/web2py/applications/Asylum/controllers/asylum.py", line 145, in my_onvalidate\n    if check_IBAN():\n  File "/home/topf/Web2Py/web2py/applications/Asylum/controllers/asylum.py", line 181, in check_IBAN\n    person_tmp = db.asylum_pbase(id=request.args(0))\n  File "/home/topf/Web2Py/web2py/gluon/packages/dal/pydal/objects.py", line 566, in __call__\n    orderby_on_limitby=False).first()\n  File "/home/topf/Web2Py/web2py/gluon/packages/dal/pydal/objects.py", line 2211, in select\n    return adapter.select(self.query, fields, attributes)\n  File "/home/topf/Web2Py/web2py/gluon/packages/dal/pydal/adapters/sqlite.py", line 82, in select\n    return super(SQLite, self).select(query, fields, attributes)\n  File "/home/topf/Web2Py/web2py/gluon/packages/dal/pydal/adapters/base.py", line 755, in select\n    colnames, sql = self._select_wcols(query, fields, **attributes)\n  File "/home/topf/Web2Py/web2py/gluon/packages/dal/pydal/adapters/base.py", line 670, in _select_wcols\n    query = self.expand(query, query_env=query_env)\n  File "/home/topf/Web2Py/web2py/gluon/packages/dal/pydal/adapters/base.py", line 432, in _expand\n    rv = op(first, second, **optional_args)\n  File "/home/topf/Web2Py/web2py/gluon/packages/dal/pydal/dialects/base.py", line 344, in eq\n    self.expand(second, first.type, query_env=query_env))\n  File "/home/topf/Web2Py/web2py/gluon/packages/dal/pydal/dialects/__init__.py", line 96, in expand\n    return self.adapter.expand(*args, **kwargs)\n  File "/home/topf/Web2Py/web2py/gluon/packages/dal/pydal/adapters/base.py", line 442, in _expand\n    rv = self.represent(expression, field_type)\n  File "/home/topf/Web2Py/web2py/gluon/packages/dal/pydal/adapters/base.py", line 379, in represent\n    return super(SQLAdapter, self).represent(obj, field_type)\n  File "/home/topf/Web2Py/web2py/gluon/packages/dal/pydal/adapters/base.py", line 335, in represent\n    return self.representer.represent(obj, field_type)\n  File "/home/topf/Web2Py/web2py/gluon/packages/dal/pydal/representers/__init__.py", line 251, in represent\n    rv = self.get_representer_for_type(field_type)(rv, field_type)\n  File "/home/topf/Web2Py/web2py/gluon/packages/dal/pydal/representers/__init__.py", line 139, in __call__\n    return self.adapt(self.call(value, field_type))\n  File "/home/topf/Web2Py/web2py/gluon/packages/dal/pydal/representers/__init__.py", line 136, in _call\n    return self.inner_call(value)\n  File "/home/topf/Web2Py/web2py/gluon/packages/dal/pydal/representers/__init__.py", line 124, in _inner_call\n    return self.obj.f(self.representer, value, **kwargs)\n  File "/home/topf/Web2Py/web2py/gluon/packages/dal/pydal/representers/base.py", line 26, in _id\n    return str(long(value))\nValueError: invalid literal for long() with base 10: \'edit\'\n'
p11
s.