(dp1
S'output'
p2
S"<type 'exceptions.IndexError'> list index out of range"
p3
sS'layer'
p4
S'/home/topf/Web2Py/web2py/applications/Asylum/controllers/default.py'
p5
sS'code'
p6
S'<code object <module> at 0xaf3786e0, file "/home/topf/Web2Py/web2py/applications/Asylum/controllers/default.py", line 12>'
p7
sS'snapshot'
p8
(dp9
sS'traceback'
p10
S'Traceback (most recent call last):\n  File "/home/topf/Web2Py/web2py/gluon/restricted.py", line 219, in restricted\n    exec(ccode, environment)\n  File "/home/topf/Web2Py/web2py/applications/Asylum/controllers/default.py", line 96, in <module>\n  File "/home/topf/Web2Py/web2py/gluon/globals.py", line 409, in <lambda>\n    self._caller = lambda f: f()\n  File "/home/topf/Web2Py/web2py/applications/Asylum/controllers/default.py", line 39, in widget_examples\n    Field(\'yesno\', type=\'boolean\', widget = SQLFORM.widgets.boolean.widget),\n  File "/home/topf/Web2Py/web2py/gluon/sqlhtml.py", line 1920, in factory\n    **attributes)\n  File "/home/topf/Web2Py/web2py/gluon/sqlhtml.py", line 1406, in __init__\n    inp = self.widgets.options.widget(field, default)\n  File "/home/topf/Web2Py/web2py/gluon/sqlhtml.py", line 324, in widget\n    options = requires[0].options()\n  File "/home/topf/Web2Py/web2py/gluon/validators.py", line 456, in options\n    items = [(k, list(self.labels)[i]) for (i, k) in enumerate(self.theset)]\nIndexError: list index out of range\n'
p11
s.