(dp1
S'output'
p2
S"<type 'exceptions.AttributeError'> 'str' object has no attribute 'tablename'"
p3
sS'layer'
p4
S'/home/topf/Web2Py/web2py/applications/Asylum/controllers/asylum.py'
p5
sS'code'
p6
S'<code object <module> at 0xae3cb140, file "/home/topf/Web2Py/web2py/applications/Asylum/controllers/asylum.py", line 3>'
p7
sS'snapshot'
p8
(dp9
sS'traceback'
p10
S'Traceback (most recent call last):\n  File "/home/topf/Web2Py/web2py/gluon/restricted.py", line 219, in restricted\n    exec(ccode, environment)\n  File "/home/topf/Web2Py/web2py/applications/Asylum/controllers/asylum.py", line 122, in <module>\n  File "/home/topf/Web2Py/web2py/gluon/globals.py", line 409, in <lambda>\n    self._caller = lambda f: f()\n  File "/home/topf/Web2Py/web2py/gluon/tools.py", line 3964, in f\n    return action(*a, **b)\n  File "/home/topf/Web2Py/web2py/applications/Asylum/controllers/asylum.py", line 102, in grid1_pbase\n    fields=[\'name\',\'firstname\'])\n  File "/home/topf/Web2Py/web2py/gluon/sqlhtml.py", line 2340, in grid\n    columns = [f for f in fields if f.tablename in tablenames]\nAttributeError: \'str\' object has no attribute \'tablename\'\n'
p11
s.