(dp1
S'output'
p2
S"<type 'exceptions.AttributeError'> 'DAL' object has no attribute 'asylum_housing'"
p3
sS'layer'
p4
S'/home/topf/Web2Py/web2py/applications/Asylum/controllers/asylum.py'
p5
sS'code'
p6
S'<code object <module> at 0xaf1215c0, file "/home/topf/Web2Py/web2py/applications/Asylum/controllers/asylum.py", line 4>'
p7
sS'snapshot'
p8
(dp9
sS'traceback'
p10
S'Traceback (most recent call last):\n  File "/home/topf/Web2Py/web2py/gluon/restricted.py", line 219, in restricted\n    exec(ccode, environment)\n  File "/home/topf/Web2Py/web2py/applications/Asylum/controllers/asylum.py", line 323, in <module>\n  File "/home/topf/Web2Py/web2py/gluon/globals.py", line 409, in <lambda>\n    self._caller = lambda f: f()\n  File "/home/topf/Web2Py/web2py/gluon/tools.py", line 3964, in f\n    return action(*a, **b)\n  File "/home/topf/Web2Py/web2py/applications/Asylum/controllers/asylum.py", line 217, in grid_housing\n    grid = SQLFORM.smartgrid(db.asylum_housing,)\n  File "/home/topf/Web2Py/web2py/gluon/packages/dal/pydal/base.py", line 670, in __getattr__\n    return BasicStorage.__getattribute__(self, key)\nAttributeError: \'DAL\' object has no attribute \'asylum_housing\'\n'
p11
s.