(dp1
S'output'
p2
S"<type 'exceptions.NameError'> global name 'field' is not defined"
p3
sS'layer'
p4
S'/home/topf/Web2Py/web2py/applications/Asylum/controllers/default.py'
p5
sS'code'
p6
S'<code object <module> at 0xae832f98, file "/home/topf/Web2Py/web2py/applications/Asylum/controllers/default.py", line 12>'
p7
sS'snapshot'
p8
(dp9
sS'traceback'
p10
S'Traceback (most recent call last):\n  File "/home/topf/Web2Py/web2py/gluon/restricted.py", line 219, in restricted\n    exec(ccode, environment)\n  File "/home/topf/Web2Py/web2py/applications/Asylum/controllers/default.py", line 105, in <module>\n  File "/home/topf/Web2Py/web2py/gluon/globals.py", line 409, in <lambda>\n    self._caller = lambda f: f()\n  File "/home/topf/Web2Py/web2py/applications/Asylum/controllers/default.py", line 43, in widget_examples\n    Field(\'radio\', requires=IS_IN_SET([\'a\',\'b\',\'c\',\'hund\']), widget=SQLFORM.widgets.radio.widget(field,value,\nNameError: global name \'field\' is not defined\n'
p11
s.